target datalayout = "e-m:e-p270:32:32-p271:32:32-p272:64:64-i64:64-i128:128-f80:128-n8:16:32:64-S128"
target triple = "x86_64-pc-linux-gnu"

%"class.std::__cxx11::basic_string" = type { %"struct.std::__cxx11::basic_string<char>::_Alloc_hider", i64, %union.anon.4 }
%"struct.std::__cxx11::basic_string<char>::_Alloc_hider" = type { ptr }
%union.anon.4 = type { i64, [8 x i8] }
%"struct.std::_Vector_base.9" = type { %"struct.std::_Vector_base<char, std::allocator<char>>::_Vector_impl" }
%"struct.std::_Vector_base<char, std::allocator<char>>::_Vector_impl" = type { %"struct.std::_Vector_base<char, std::allocator<char>>::_Vector_impl_data" }
%"struct.std::_Vector_base<char, std::allocator<char>>::_Vector_impl_data" = type { ptr, ptr, ptr }
%"class.cv::gapi::s11n::ByteMemoryInStream" = type { %"struct.cv::gapi::s11n::IIStream", ptr, i64 }
%"struct.cv::gapi::s11n::IIStream" = type { ptr }
%"struct.ade::util::Range::IotaRange" = type { i32, i32 }
%"struct.ade::util::Range::IotaRange<unsigned int, 1>::iterator" = type { i32 }

; Function Attrs: mustprogress nounwind uwtable
define linkonce_odr hidden void @_ZNSt11char_traitsIcE6assignERcRKc(ptr noundef nonnull align 1 dereferenceable(1) %0, ptr noundef nonnull align 1 dereferenceable(1) %1) #9 comdat align 2 {
  %3 = alloca ptr, align 8
  %4 = alloca ptr, align 8
  store ptr %0, ptr %3, align 8, !tbaa !72
  store ptr %1, ptr %4, align 8, !tbaa !72
  %5 = load ptr, ptr %4, align 8, !tbaa !72
  %6 = load i8, ptr %5, align 1, !tbaa !146
  %7 = load ptr, ptr %3, align 8, !tbaa !72
  store i8 %6, ptr %7, align 1, !tbaa !146
  ret void
}

; Function Attrs: mustprogress nounwind uwtable
define available_externally void @_ZNSt7__cxx1112basic_stringIcSt11char_traitsIcESaIcEE9_M_lengthEm(ptr noundef nonnull align 8 dereferenceable(32) %0, i64 noundef %1) #9 align 2 {
  %3 = alloca ptr, align 8
  %4 = alloca i64, align 8
  store ptr %0, ptr %3, align 8, !tbaa !70
  store i64 %1, ptr %4, align 8, !tbaa !128
  %5 = load ptr, ptr %3, align 8
  %6 = load i64, ptr %4, align 8, !tbaa !128
  %7 = getelementptr inbounds nuw %"class.std::__cxx11::basic_string", ptr %5, i32 0, i32 1
  store i64 %6, ptr %7, align 8, !tbaa !361
  ret void
}

; Function Attrs: mustprogress nounwind uwtable
define linkonce_odr hidden void @_ZN2cv4util23suppress_unused_warningIbEEvRKT_(ptr noundef nonnull align 1 dereferenceable(1) %0) #9 comdat {
  %2 = alloca ptr, align 8
  store ptr %0, ptr %2, align 8, !tbaa !207
  ret void
}

; Function Attrs: mustprogress nounwind uwtable
define available_externally noundef ptr @_ZNKSt7__cxx1112basic_stringIcSt11char_traitsIcESaIcEE7_M_dataEv(ptr noundef nonnull align 8 dereferenceable(32) %0) #9 align 2 {
  %2 = alloca ptr, align 8
  store ptr %0, ptr %2, align 8, !tbaa !70
  %3 = load ptr, ptr %2, align 8
  %4 = getelementptr inbounds nuw %"class.std::__cxx11::basic_string", ptr %3, i32 0, i32 0
  %5 = getelementptr inbounds nuw %"struct.std::__cxx11::basic_string<char>::_Alloc_hider", ptr %4, i32 0, i32 0
  %6 = load ptr, ptr %5, align 8, !tbaa !734
  ret ptr %6
}

; Function Attrs: inlinehint mustprogress nounwind uwtable
define linkonce_odr hidden void @_ZNK3ade4util5Range9IotaRangeIjLi1EE5checkEv(ptr noundef nonnull align 4 dereferenceable(8) %0) #7 comdat align 2 {
  %2 = alloca ptr, align 8
  store ptr %0, ptr %2, align 8, !tbaa !380
  ret void
}

; Function Attrs: noinline noreturn nounwind uwtable
define linkonce_odr hidden void @__clang_call_terminate(ptr noundef %0) #17 comdat {
  %2 = call ptr @__cxa_begin_catch(ptr %0) #3
  call void @_ZSt9terminatev() #28
  unreachable
}

; Function Attrs: mustprogress uwtable
define available_externally void @_ZNSt7__cxx1112basic_stringIcSt11char_traitsIcESaIcEE13_M_set_lengthEm(ptr noundef nonnull align 8 dereferenceable(32) %0, i64 noundef %1) #4 align 2 {
  %3 = alloca ptr, align 8
  %4 = alloca i64, align 8
  %5 = alloca i8, align 1
  store ptr %0, ptr %3, align 8, !tbaa !70
  store i64 %1, ptr %4, align 8, !tbaa !128
  %6 = load ptr, ptr %3, align 8
  %7 = load i64, ptr %4, align 8, !tbaa !128
  call void @_ZNSt7__cxx1112basic_stringIcSt11char_traitsIcESaIcEE9_M_lengthEm(ptr noundef nonnull align 8 dereferenceable(32) %6, i64 noundef %7)
  %8 = call noundef ptr @_ZNKSt7__cxx1112basic_stringIcSt11char_traitsIcESaIcEE7_M_dataEv(ptr noundef nonnull align 8 dereferenceable(32) %6)
  %9 = load i64, ptr %4, align 8, !tbaa !128
  %10 = getelementptr inbounds nuw i8, ptr %8, i64 %9
  call void @llvm.lifetime.start.p0(i64 1, ptr %5) #3
  store i8 0, ptr %5, align 1, !tbaa !146
  call void @_ZNSt11char_traitsIcE6assignERcRKc(ptr noundef nonnull align 1 dereferenceable(1) %10, ptr noundef nonnull align 1 dereferenceable(1) %5) #3
  call void @llvm.lifetime.end.p0(i64 1, ptr %5) #3
  ret void
}

; Function Attrs: mustprogress nounwind uwtable
define linkonce_odr hidden noundef nonnull align 1 dereferenceable(1) ptr @_ZNKSt6vectorIcSaIcEEixEm(ptr noundef nonnull align 8 dereferenceable(24) %0, i64 noundef %1) #9 comdat align 2 {
  %3 = alloca ptr, align 8
  %4 = alloca i64, align 8
  store ptr %0, ptr %3, align 8, !tbaa !141
  store i64 %1, ptr %4, align 8, !tbaa !128
  %5 = load ptr, ptr %3, align 8
  %6 = getelementptr inbounds nuw %"struct.std::_Vector_base.9", ptr %5, i32 0, i32 0
  %7 = getelementptr inbounds nuw %"struct.std::_Vector_base<char, std::allocator<char>>::_Vector_impl_data", ptr %6, i32 0, i32 0
  %8 = load ptr, ptr %7, align 8, !tbaa !143
  %9 = load i64, ptr %4, align 8, !tbaa !128
  %10 = getelementptr inbounds nuw i8, ptr %8, i64 %9
  ret ptr %10
}

; Function Attrs: mustprogress nounwind uwtable
define linkonce_odr hidden void @_ZN2cv4gapi4s11n18ByteMemoryInStream5checkEm(ptr noundef nonnull align 8 dereferenceable(24) %0, i64 noundef %1) #9 comdat align 2 {
  %3 = alloca ptr, align 8
  %4 = alloca i64, align 8
  %5 = alloca i8, align 1
  store ptr %0, ptr %3, align 8, !tbaa !366
  store i64 %1, ptr %4, align 8, !tbaa !128
  call void @llvm.lifetime.start.p0(i64 1, ptr %5) #3
  store i8 0, ptr %5, align 1, !tbaa !199
  call void @_ZN2cv4util23suppress_unused_warningIbEEvRKT_(ptr noundef nonnull align 1 dereferenceable(1) %5)
  call void @llvm.lifetime.end.p0(i64 1, ptr %5) #3
  ret void
}

; Function Attrs: inlinehint mustprogress nounwind uwtable
define linkonce_odr hidden noundef nonnull align 4 dereferenceable(4) ptr @_ZN3ade4util5Range9IotaRangeIjLi1EE8iteratorppEv(ptr noundef nonnull align 4 dereferenceable(4) %0) #7 comdat align 2 {
  %2 = alloca ptr, align 8
  store ptr %0, ptr %2, align 8, !tbaa !387
  %3 = load ptr, ptr %2, align 8
  %4 = getelementptr inbounds nuw %"struct.ade::util::Range::IotaRange<unsigned int, 1>::iterator", ptr %3, i32 0, i32 0
  %5 = load i32, ptr %4, align 4, !tbaa !385
  %6 = add i32 %5, 1
  store i32 %6, ptr %4, align 4, !tbaa !385
  ret ptr %3
}

; Function Attrs: mustprogress uwtable
define noundef nonnull align 8 dereferenceable(8) ptr @_ZN2cv4gapi4s11n18ByteMemoryInStreamrsERc(ptr noundef nonnull align 8 dereferenceable(24) %0, ptr noundef nonnull align 1 dereferenceable(1) %1) unnamed_addr #4 align 2 {
  %3 = alloca ptr, align 8
  %4 = alloca ptr, align 8
  store ptr %0, ptr %3, align 8, !tbaa !366
  store ptr %1, ptr %4, align 8, !tbaa !72
  %5 = load ptr, ptr %3, align 8
  call void @_ZN2cv4gapi4s11n18ByteMemoryInStream5checkEm(ptr noundef nonnull align 8 dereferenceable(24) %5, i64 noundef 1)
  %6 = getelementptr inbounds nuw %"class.cv::gapi::s11n::ByteMemoryInStream", ptr %5, i32 0, i32 1
  %7 = load ptr, ptr %6, align 8, !tbaa !371
  %8 = getelementptr inbounds nuw %"class.cv::gapi::s11n::ByteMemoryInStream", ptr %5, i32 0, i32 2
  %9 = load i64, ptr %8, align 8, !tbaa !368
  %10 = add i64 %9, 1
  store i64 %10, ptr %8, align 8, !tbaa !368
  %11 = call noundef nonnull align 1 dereferenceable(1) ptr @_ZNKSt6vectorIcSaIcEEixEm(ptr noundef nonnull align 8 dereferenceable(24) %7, i64 noundef %9) #3
  %12 = load i8, ptr %11, align 1, !tbaa !146
  %13 = load ptr, ptr %4, align 8, !tbaa !72
  store i8 %12, ptr %13, align 1, !tbaa !146
  ret ptr %5
}

; Function Attrs: mustprogress nounwind uwtable
define available_externally noundef nonnull align 1 dereferenceable(1) ptr @_ZNSt7__cxx1112basic_stringIcSt11char_traitsIcESaIcEEixEm(ptr noundef nonnull align 8 dereferenceable(32) %0, i64 noundef %1) #9 align 2 {
  %3 = alloca ptr, align 8
  %4 = alloca i64, align 8
  store ptr %0, ptr %3, align 8, !tbaa !70
  store i64 %1, ptr %4, align 8, !tbaa !128
  %5 = load ptr, ptr %3, align 8
  br label %6

6:                                                ; preds = %2
  br label %7

7:                                                ; preds = %6
  %8 = call noundef ptr @_ZNKSt7__cxx1112basic_stringIcSt11char_traitsIcESaIcEE7_M_dataEv(ptr noundef nonnull align 8 dereferenceable(32) %5)
  %9 = load i64, ptr %4, align 8, !tbaa !128
  %10 = getelementptr inbounds nuw i8, ptr %8, i64 %9
  ret ptr %10
}

; Function Attrs: inlinehint mustprogress nounwind uwtable
define linkonce_odr hidden noundef nonnull align 4 dereferenceable(4) ptr @_ZNK3ade4util5Range9IotaRangeIjLi1EE8iteratordeEv(ptr noundef nonnull align 4 dereferenceable(4) %0) #7 comdat align 2 {
  %2 = alloca ptr, align 8
  store ptr %0, ptr %2, align 8, !tbaa !387
  %3 = load ptr, ptr %2, align 8
  %4 = getelementptr inbounds nuw %"struct.ade::util::Range::IotaRange<unsigned int, 1>::iterator", ptr %3, i32 0, i32 0
  ret ptr %4
}

; Function Attrs: inlinehint mustprogress nounwind uwtable
define linkonce_odr hidden noundef zeroext i1 @_ZNK3ade4util5Range9IotaRangeIjLi1EE8iteratorneERKS4_(ptr noundef nonnull align 4 dereferenceable(4) %0, ptr noundef nonnull align 4 dereferenceable(4) %1) #7 comdat align 2 {
  %3 = alloca ptr, align 8
  %4 = alloca ptr, align 8
  store ptr %0, ptr %3, align 8, !tbaa !387
  store ptr %1, ptr %4, align 8, !tbaa !387
  %5 = load ptr, ptr %3, align 8
  %6 = getelementptr inbounds nuw %"struct.ade::util::Range::IotaRange<unsigned int, 1>::iterator", ptr %5, i32 0, i32 0
  %7 = load i32, ptr %6, align 4, !tbaa !385
  %8 = load ptr, ptr %4, align 8, !tbaa !387
  %9 = getelementptr inbounds nuw %"struct.ade::util::Range::IotaRange<unsigned int, 1>::iterator", ptr %8, i32 0, i32 0
  %10 = load i32, ptr %9, align 4, !tbaa !385
  %11 = icmp ne i32 %7, %10
  ret i1 %11
}

; Function Attrs: inlinehint mustprogress nounwind uwtable
define linkonce_odr hidden i32 @_ZNK3ade4util5Range9IotaRangeIjLi1EE3endEv(ptr noundef nonnull align 4 dereferenceable(8) %0) #7 comdat align 2 {
  %2 = alloca %"struct.ade::util::Range::IotaRange<unsigned int, 1>::iterator", align 4
  %3 = alloca ptr, align 8
  store ptr %0, ptr %3, align 8, !tbaa !380
  %4 = load ptr, ptr %3, align 8
  call void @_ZNK3ade4util5Range9IotaRangeIjLi1EE5checkEv(ptr noundef nonnull align 4 dereferenceable(8) %4)
  %5 = getelementptr inbounds nuw %"struct.ade::util::Range::IotaRange<unsigned int, 1>::iterator", ptr %2, i32 0, i32 0
  %6 = getelementptr inbounds nuw %"struct.ade::util::Range::IotaRange", ptr %4, i32 0, i32 1
  %7 = load i32, ptr %6, align 4, !tbaa !384
  store i32 %7, ptr %5, align 4, !tbaa !385
  %8 = getelementptr inbounds nuw %"struct.ade::util::Range::IotaRange<unsigned int, 1>::iterator", ptr %2, i32 0, i32 0
  %9 = load i32, ptr %8, align 4
  ret i32 %9
}

; Function Attrs: inlinehint mustprogress uwtable
define linkonce_odr hidden i32 @_ZNK3ade4util5Range9IotaRangeIjLi1EE5beginEv(ptr noundef nonnull align 4 dereferenceable(8) %0) #10 comdat align 2 {
  %2 = alloca %"struct.ade::util::Range::IotaRange<unsigned int, 1>::iterator", align 4
  %3 = alloca ptr, align 8
  store ptr %0, ptr %3, align 8, !tbaa !380
  %4 = load ptr, ptr %3, align 8
  call void @_ZNK3ade4util5Range9IotaRangeIjLi1EE5checkEv(ptr noundef nonnull align 4 dereferenceable(8) %4)
  %5 = getelementptr inbounds nuw %"struct.ade::util::Range::IotaRange<unsigned int, 1>::iterator", ptr %2, i32 0, i32 0
  %6 = getelementptr inbounds nuw %"struct.ade::util::Range::IotaRange", ptr %4, i32 0, i32 0
  %7 = load i32, ptr %6, align 4, !tbaa !382
  store i32 %7, ptr %5, align 4, !tbaa !385
  %8 = getelementptr inbounds nuw %"struct.ade::util::Range::IotaRange<unsigned int, 1>::iterator", ptr %2, i32 0, i32 0
  %9 = load i32, ptr %8, align 4
  ret i32 %9
}

; Function Attrs: inlinehint mustprogress nounwind uwtable
define linkonce_odr hidden i64 @_ZN3ade4util5Range4iotaIjEENS1_9IotaRangeIT_Li1EEES4_(i32 noundef %0) #7 comdat {
  %2 = alloca %"struct.ade::util::Range::IotaRange", align 4
  %3 = alloca i32, align 4
  store i32 %0, ptr %3, align 4, !tbaa !67
  %4 = getelementptr inbounds nuw %"struct.ade::util::Range::IotaRange", ptr %2, i32 0, i32 0
  store i32 0, ptr %4, align 4, !tbaa !382
  %5 = getelementptr inbounds nuw %"struct.ade::util::Range::IotaRange", ptr %2, i32 0, i32 1
  %6 = load i32, ptr %3, align 4, !tbaa !67
  store i32 %6, ptr %5, align 4, !tbaa !384
  %7 = load i64, ptr %2, align 4
  ret i64 %7
}

; Function Attrs: mustprogress uwtable
define available_externally void @_ZNSt7__cxx1112basic_stringIcSt11char_traitsIcESaIcEE6resizeEm(ptr noundef nonnull align 8 dereferenceable(32) %0, i64 noundef %1) #4 align 2 {
  %3 = alloca ptr, align 8
  %4 = alloca i64, align 8
  store ptr %0, ptr %3, align 8, !tbaa !70
  store i64 %1, ptr %4, align 8, !tbaa !128
  %5 = load ptr, ptr %3, align 8
  %6 = load i64, ptr %4, align 8, !tbaa !128
  call void @_ZNSt7__cxx1112basic_stringIcSt11char_traitsIcESaIcEE6resizeEmc(ptr noundef nonnull align 8 dereferenceable(32) %5, i64 noundef %6, i8 noundef signext 0)
  ret void
}

; Function Attrs: mustprogress nounwind uwtable
define available_externally void @_ZNSt7__cxx1112basic_stringIcSt11char_traitsIcESaIcEE5clearEv(ptr noundef nonnull align 8 dereferenceable(32) %0) #9 align 2 personality ptr @__gxx_personality_v0 {
  %2 = alloca ptr, align 8
  store ptr %0, ptr %2, align 8, !tbaa !70
  %3 = load ptr, ptr %2, align 8
  invoke void @_ZNSt7__cxx1112basic_stringIcSt11char_traitsIcESaIcEE13_M_set_lengthEm(ptr noundef nonnull align 8 dereferenceable(32) %3, i64 noundef 0)
          to label %4 unwind label %5

4:                                                ; preds = %1
  ret void

5:                                                ; preds = %1
  %6 = landingpad { ptr, i32 }
          catch ptr null
  %7 = extractvalue { ptr, i32 } %6, 0
  call void @__clang_call_terminate(ptr %7) #28
  unreachable
}

; Function Attrs: mustprogress uwtable
define noundef nonnull align 8 dereferenceable(8) ptr @_ZN2cv4gapi4s11n18ByteMemoryInStreamrsERj(ptr noundef nonnull align 8 dereferenceable(24) %0, ptr noundef nonnull align 4 dereferenceable(4) %1) unnamed_addr #4 align 2 {
  %3 = alloca ptr, align 8
  %4 = alloca ptr, align 8
  %5 = alloca [4 x i8], align 1
  store ptr %0, ptr %3, align 8, !tbaa !366
  store ptr %1, ptr %4, align 8, !tbaa !76
  %6 = load ptr, ptr %3, align 8
  call void @_ZN2cv4gapi4s11n18ByteMemoryInStream5checkEm(ptr noundef nonnull align 8 dereferenceable(24) %6, i64 noundef 4)
  call void @llvm.lifetime.start.p0(i64 4, ptr %5) #3
  %7 = getelementptr inbounds nuw %"class.cv::gapi::s11n::ByteMemoryInStream", ptr %6, i32 0, i32 1
  %8 = load ptr, ptr %7, align 8, !tbaa !371
  %9 = getelementptr inbounds nuw %"class.cv::gapi::s11n::ByteMemoryInStream", ptr %6, i32 0, i32 2
  %10 = load i64, ptr %9, align 8, !tbaa !368
  %11 = add i64 %10, 1
  store i64 %11, ptr %9, align 8, !tbaa !368
  %12 = call noundef nonnull align 1 dereferenceable(1) ptr @_ZNKSt6vectorIcSaIcEEixEm(ptr noundef nonnull align 8 dereferenceable(24) %8, i64 noundef %10) #3
  %13 = load i8, ptr %12, align 1, !tbaa !146
  %14 = getelementptr inbounds [4 x i8], ptr %5, i64 0, i64 0
  store i8 %13, ptr %14, align 1, !tbaa !146
  %15 = getelementptr inbounds nuw %"class.cv::gapi::s11n::ByteMemoryInStream", ptr %6, i32 0, i32 1
  %16 = load ptr, ptr %15, align 8, !tbaa !371
  %17 = getelementptr inbounds nuw %"class.cv::gapi::s11n::ByteMemoryInStream", ptr %6, i32 0, i32 2
  %18 = load i64, ptr %17, align 8, !tbaa !368
  %19 = add i64 %18, 1
  store i64 %19, ptr %17, align 8, !tbaa !368
  %20 = call noundef nonnull align 1 dereferenceable(1) ptr @_ZNKSt6vectorIcSaIcEEixEm(ptr noundef nonnull align 8 dereferenceable(24) %16, i64 noundef %18) #3
  %21 = load i8, ptr %20, align 1, !tbaa !146
  %22 = getelementptr inbounds [4 x i8], ptr %5, i64 0, i64 1
  store i8 %21, ptr %22, align 1, !tbaa !146
  %23 = getelementptr inbounds nuw %"class.cv::gapi::s11n::ByteMemoryInStream", ptr %6, i32 0, i32 1
  %24 = load ptr, ptr %23, align 8, !tbaa !371
  %25 = getelementptr inbounds nuw %"class.cv::gapi::s11n::ByteMemoryInStream", ptr %6, i32 0, i32 2
  %26 = load i64, ptr %25, align 8, !tbaa !368
  %27 = add i64 %26, 1
  store i64 %27, ptr %25, align 8, !tbaa !368
  %28 = call noundef nonnull align 1 dereferenceable(1) ptr @_ZNKSt6vectorIcSaIcEEixEm(ptr noundef nonnull align 8 dereferenceable(24) %24, i64 noundef %26) #3
  %29 = load i8, ptr %28, align 1, !tbaa !146
  %30 = getelementptr inbounds [4 x i8], ptr %5, i64 0, i64 2
  store i8 %29, ptr %30, align 1, !tbaa !146
  %31 = getelementptr inbounds nuw %"class.cv::gapi::s11n::ByteMemoryInStream", ptr %6, i32 0, i32 1
  %32 = load ptr, ptr %31, align 8, !tbaa !371
  %33 = getelementptr inbounds nuw %"class.cv::gapi::s11n::ByteMemoryInStream", ptr %6, i32 0, i32 2
  %34 = load i64, ptr %33, align 8, !tbaa !368
  %35 = add i64 %34, 1
  store i64 %35, ptr %33, align 8, !tbaa !368
  %36 = call noundef nonnull align 1 dereferenceable(1) ptr @_ZNKSt6vectorIcSaIcEEixEm(ptr noundef nonnull align 8 dereferenceable(24) %32, i64 noundef %34) #3
  %37 = load i8, ptr %36, align 1, !tbaa !146
  %38 = getelementptr inbounds [4 x i8], ptr %5, i64 0, i64 3
  store i8 %37, ptr %38, align 1, !tbaa !146
  %39 = getelementptr inbounds [4 x i8], ptr %5, i64 0, i64 0
  %40 = load i8, ptr %39, align 1, !tbaa !146
  %41 = zext i8 %40 to i32
  %42 = getelementptr inbounds [4 x i8], ptr %5, i64 0, i64 1
  %43 = load i8, ptr %42, align 1, !tbaa !146
  %44 = zext i8 %43 to i32
  %45 = shl i32 %44, 8
  %46 = or i32 %41, %45
  %47 = getelementptr inbounds [4 x i8], ptr %5, i64 0, i64 2
  %48 = load i8, ptr %47, align 1, !tbaa !146
  %49 = zext i8 %48 to i32
  %50 = shl i32 %49, 16
  %51 = or i32 %46, %50
  %52 = getelementptr inbounds [4 x i8], ptr %5, i64 0, i64 3
  %53 = load i8, ptr %52, align 1, !tbaa !146
  %54 = zext i8 %53 to i32
  %55 = shl i32 %54, 24
  %56 = or i32 %51, %55
  %57 = load ptr, ptr %4, align 8, !tbaa !76
  store i32 %56, ptr %57, align 4, !tbaa !67
  call void @llvm.lifetime.end.p0(i64 4, ptr %5) #3
  ret ptr %6
}

; Function Attrs: mustprogress uwtable
define noundef nonnull align 8 dereferenceable(8) ptr @_ZN2cv4gapi4s11n18ByteMemoryInStreamrsERNSt7__cxx1112basic_stringIcSt11char_traitsIcESaIcEEE(ptr noundef nonnull align 8 dereferenceable(24) %0, ptr noundef nonnull align 8 dereferenceable(32) %1) unnamed_addr #4 align 2 {
  %3 = alloca ptr, align 8
  %4 = alloca ptr, align 8
  %5 = alloca i32, align 4
  %6 = alloca ptr, align 8
  %7 = alloca %"struct.ade::util::Range::IotaRange", align 4
  %8 = alloca %"struct.ade::util::Range::IotaRange<unsigned int, 1>::iterator", align 4
  %9 = alloca %"struct.ade::util::Range::IotaRange<unsigned int, 1>::iterator", align 4
  %10 = alloca ptr, align 8
  store ptr %0, ptr %3, align 8, !tbaa !366
  store ptr %1, ptr %4, align 8, !tbaa !70
  %11 = load ptr, ptr %3, align 8
  call void @llvm.lifetime.start.p0(i64 4, ptr %5) #3
  store i32 0, ptr %5, align 4, !tbaa !67
  %12 = call noundef nonnull align 8 dereferenceable(8) ptr @_ZN2cv4gapi4s11n18ByteMemoryInStreamrsERj(ptr noundef nonnull align 8 dereferenceable(24) %11, ptr noundef nonnull align 4 dereferenceable(4) %5)
  %13 = load i32, ptr %5, align 4, !tbaa !67
  %14 = icmp eq i32 %13, 0
  br i1 %14, label %15, label %17

15:                                               ; preds = %2
  %16 = load ptr, ptr %4, align 8, !tbaa !70
  call void @_ZNSt7__cxx1112basic_stringIcSt11char_traitsIcESaIcEE5clearEv(ptr noundef nonnull align 8 dereferenceable(32) %16) #3
  br label %43

17:                                               ; preds = %2
  %18 = load ptr, ptr %4, align 8, !tbaa !70
  %19 = load i32, ptr %5, align 4, !tbaa !67
  %20 = zext i32 %19 to i64
  call void @_ZNSt7__cxx1112basic_stringIcSt11char_traitsIcESaIcEE6resizeEm(ptr noundef nonnull align 8 dereferenceable(32) %18, i64 noundef %20)
  call void @llvm.lifetime.start.p0(i64 8, ptr %6) #3
  call void @llvm.lifetime.start.p0(i64 8, ptr %7) #3
  %21 = load i32, ptr %5, align 4, !tbaa !67
  %22 = call i64 @_ZN3ade4util5Range4iotaIjEENS1_9IotaRangeIT_Li1EEES4_(i32 noundef %21)
  store i64 %22, ptr %7, align 4
  store ptr %7, ptr %6, align 8, !tbaa !380
  call void @llvm.lifetime.start.p0(i64 4, ptr %8) #3
  %23 = load ptr, ptr %6, align 8, !tbaa !380
  %24 = call i32 @_ZNK3ade4util5Range9IotaRangeIjLi1EE5beginEv(ptr noundef nonnull align 4 dereferenceable(8) %23)
  %25 = getelementptr inbounds nuw %"struct.ade::util::Range::IotaRange<unsigned int, 1>::iterator", ptr %8, i32 0, i32 0
  store i32 %24, ptr %25, align 4
  call void @llvm.lifetime.start.p0(i64 4, ptr %9) #3
  %26 = load ptr, ptr %6, align 8, !tbaa !380
  %27 = call i32 @_ZNK3ade4util5Range9IotaRangeIjLi1EE3endEv(ptr noundef nonnull align 4 dereferenceable(8) %26)
  %28 = getelementptr inbounds nuw %"struct.ade::util::Range::IotaRange<unsigned int, 1>::iterator", ptr %9, i32 0, i32 0
  store i32 %27, ptr %28, align 4
  br label %29

29:                                               ; preds = %40, %17
  %30 = call noundef zeroext i1 @_ZNK3ade4util5Range9IotaRangeIjLi1EE8iteratorneERKS4_(ptr noundef nonnull align 4 dereferenceable(4) %8, ptr noundef nonnull align 4 dereferenceable(4) %9)
  br i1 %30, label %32, label %31

31:                                               ; preds = %29
  call void @llvm.lifetime.end.p0(i64 4, ptr %9) #3
  call void @llvm.lifetime.end.p0(i64 4, ptr %8) #3
  call void @llvm.lifetime.end.p0(i64 8, ptr %7) #3
  call void @llvm.lifetime.end.p0(i64 8, ptr %6) #3
  br label %42

32:                                               ; preds = %29
  call void @llvm.lifetime.start.p0(i64 8, ptr %10) #3
  %33 = call noundef nonnull align 4 dereferenceable(4) ptr @_ZNK3ade4util5Range9IotaRangeIjLi1EE8iteratordeEv(ptr noundef nonnull align 4 dereferenceable(4) %8)
  store ptr %33, ptr %10, align 8, !tbaa !76
  %34 = load ptr, ptr %4, align 8, !tbaa !70
  %35 = load ptr, ptr %10, align 8, !tbaa !76
  %36 = load i32, ptr %35, align 4, !tbaa !67
  %37 = zext i32 %36 to i64
  %38 = call noundef nonnull align 1 dereferenceable(1) ptr @_ZNSt7__cxx1112basic_stringIcSt11char_traitsIcESaIcEEixEm(ptr noundef nonnull align 8 dereferenceable(32) %34, i64 noundef %37)
  %39 = call noundef nonnull align 8 dereferenceable(8) ptr @_ZN2cv4gapi4s11n18ByteMemoryInStreamrsERc(ptr noundef nonnull align 8 dereferenceable(24) %11, ptr noundef nonnull align 1 dereferenceable(1) %38)
  call void @llvm.lifetime.end.p0(i64 8, ptr %10) #3
  br label %40

40:                                               ; preds = %32
  %41 = call noundef nonnull align 4 dereferenceable(4) ptr @_ZN3ade4util5Range9IotaRangeIjLi1EE8iteratorppEv(ptr noundef nonnull align 4 dereferenceable(4) %8)
  br label %29

42:                                               ; preds = %31
  br label %43

43:                                               ; preds = %42, %15
  call void @llvm.lifetime.end.p0(i64 4, ptr %5) #3
  ret ptr %11
}