; Function Attrs: mustprogress uwtable
define noundef nonnull align 8 dereferenceable(8) ptr @_ZN2cv4gapi4s11n18ByteMemoryInStreamrsERNSt7__cxx1112basic_stringIcSt11char_traitsIcESaIcEEE(ptr noundef nonnull returned align 8 dereferenceable(24) %0, ptr noundef nonnull align 8 dereferenceable(32) %1) unnamed_addr #3 align 2 personality ptr @__gxx_personality_v0 {
  %3 = getelementptr inbounds nuw i8, ptr %0, i64 8
  %4 = load ptr, ptr %3, align 8, !tbaa !648
  %5 = getelementptr inbounds nuw i8, ptr %0, i64 16
  %6 = load i64, ptr %5, align 8, !tbaa !645
  %7 = add i64 %6, 1
  store i64 %7, ptr %5, align 8, !tbaa !645
  %8 = load ptr, ptr %4, align 8, !tbaa !124
  %9 = getelementptr inbounds nuw i8, ptr %8, i64 %6
  %10 = load i8, ptr %9, align 1, !tbaa !56
  %11 = add i64 %6, 2
  store i64 %11, ptr %5, align 8, !tbaa !645
  %12 = getelementptr inbounds nuw i8, ptr %8, i64 %7
  %13 = load i8, ptr %12, align 1, !tbaa !56
  %14 = add i64 %6, 3
  store i64 %14, ptr %5, align 8, !tbaa !645
  %15 = getelementptr inbounds nuw i8, ptr %8, i64 %11
  %16 = load i8, ptr %15, align 1, !tbaa !56
  %17 = add i64 %6, 4
  store i64 %17, ptr %5, align 8, !tbaa !645
  %18 = getelementptr inbounds nuw i8, ptr %8, i64 %14
  %19 = load i8, ptr %18, align 1, !tbaa !56
  %20 = zext i8 %10 to i32
  %21 = zext i8 %13 to i32
  %22 = shl nuw nsw i32 %21, 8
  %23 = or disjoint i32 %22, %20
  %24 = zext i8 %16 to i32
  %25 = shl nuw nsw i32 %24, 16
  %26 = or disjoint i32 %23, %25
  %27 = zext i8 %19 to i32
  %28 = shl nuw i32 %27, 24
  %29 = or disjoint i32 %26, %28
  %30 = icmp eq i32 %29, 0
  br i1 %30, label %31, label %34

31:                                               ; preds = %2
  %32 = getelementptr inbounds nuw i8, ptr %1, i64 8
  store i64 0, ptr %32, align 8, !tbaa !44
  %33 = load ptr, ptr %1, align 8, !tbaa !39
  store i8 0, ptr %33, align 1, !tbaa !56
  br label %.loopexit

34:                                               ; preds = %2
  %35 = zext i32 %29 to i64
  tail call void @_ZNSt7__cxx1112basic_stringIcSt11char_traitsIcESaIcEE6resizeEmc(ptr noundef nonnull align 8 dereferenceable(32) %1, i64 noundef %35, i8 noundef signext 0)
  br label %36

36:                                               ; preds = %34, %36
  %indvars.iv = phi i64 [ 0, %34 ], [ %indvars.iv.next, %36 ]
  %37 = load ptr, ptr %1, align 8, !tbaa !39
  %38 = getelementptr inbounds nuw i8, ptr %37, i64 %indvars.iv
  %39 = load ptr, ptr %3, align 8, !tbaa !648
  %40 = load i64, ptr %5, align 8, !tbaa !645
  %41 = add i64 %40, 1
  store i64 %41, ptr %5, align 8, !tbaa !645
  %42 = load ptr, ptr %39, align 8, !tbaa !124
  %43 = getelementptr inbounds nuw i8, ptr %42, i64 %40
  %44 = load i8, ptr %43, align 1, !tbaa !56
  store i8 %44, ptr %38, align 1, !tbaa !56
  %indvars.iv.next = add nuw nsw i64 %indvars.iv, 1
  %.not = icmp eq i64 %indvars.iv.next, %35
  br i1 %.not, label %.loopexit, label %36

.loopexit:                                        ; preds = %36, %31
  ret ptr %0
}